#include <math.h>
#include <stdio.h>
#include <stdlib.h>
#include <string.h>

int main()
{
	int row,col,i,j,n;
	int a[100][100];
	scanf("%d %d",&row,&col);
	for(i=0;i<row;i++)
	{
		for(j=0;j<col;j++)
		{
			scanf("%d",&a[i][j]);
		}
	}
	for(n=0;n<row-1+col;n++)
	{
		if(n<col)
		{
			for(i=n;((n-i)<=(row-1))&&(i>=0);i--)
				printf("%d\n",a[n-i][i]);
		}
		if(n>col-1)
		{
			for(i=col-1;((n-i)<=(row-1))&&(i>=0);i--)
				printf("%d\n",a[n-i][i]);
		}
	}
	return 0;
}
